; Function Attrs: mustprogress uwtable
define dso_local noundef ptr @_ZN16cmCPackGenerator14GetInstallPathEv(ptr noundef nonnull align 8 dereferenceable(360) %0) unnamed_addr #6 align 2 {
  %2 = getelementptr inbounds i8, ptr %0, i64 48
  %3 = tail call noundef zeroext i1 @_ZNKSt7__cxx1112basic_stringIcSt11char_traitsIcESaIcEE5emptyEv(ptr noundef nonnull align 8 dereferenceable(32) %2) #23
  br i1 %3, label %4, label %6

4:                                                ; preds = %1
  %5 = tail call noundef nonnull align 8 dereferenceable(32) ptr @_ZNSt7__cxx1112basic_stringIcSt11char_traitsIcESaIcEEaSEPKc(ptr noundef nonnull align 8 dereferenceable(32) %2, ptr noundef nonnull @.str.168)
  br label %6

6:                                                ; preds = %1, %4
  %7 = tail call noundef ptr @_ZNKSt7__cxx1112basic_stringIcSt11char_traitsIcESaIcEE5c_strEv(ptr noundef nonnull align 8 dereferenceable(32) %2) #23
  ret ptr %7
}